target datalayout = "e-m:e-p270:32:32-p271:32:32-p272:64:64-i64:64-i128:128-f80:128-n8:16:32:64-S128"
target triple = "x86_64-pc-linux-gnu"

%struct.H5D_chk_idx_info_t = type { ptr, ptr, ptr, ptr }
%struct.H5O_storage_chunk_t = type { i32, i64, ptr, %union.anon }
%union.anon = type { %struct.H5O_storage_chunk_btree_t }
%struct.H5O_storage_chunk_btree_t = type { i64, ptr }
%struct.H5D_chunk_common_ud_t = type { ptr, ptr, ptr }

@H5D_init_g = external global i8, align 1
@H5_libterm_g = external global i8, align 1
@.str = private unnamed_addr constant [102 x i8] c"generated/home/dtcxzyw/WorkSpace/Projects/compilers/llvm-opt-benchmark/bench/hdf5/hdf5/src/H5Dbtree.c\00", align 1
@H5E_CANTINIT_g = external global i64, align 8
@__func__.H5D__btree_idx_create = private unnamed_addr constant [22 x i8] c"H5D__btree_idx_create\00", align 1
@H5E_DATASET_g = external global i64, align 8
@.str.5 = private unnamed_addr constant [20 x i8] c"can't create B-tree\00", align 1

; Function Attrs: nounwind uwtable
define internal i32 @H5D__btree_idx_create(ptr noundef %0) #0 {
  %2 = alloca ptr, align 8
  %3 = alloca %struct.H5D_chunk_common_ud_t, align 8
  %4 = alloca i32, align 4
  %5 = alloca i8, align 1
  store ptr %0, ptr %2, align 8, !tbaa !3
  call void @llvm.lifetime.start.p0(i64 24, ptr %3) #8
  call void @llvm.lifetime.start.p0(i64 4, ptr %4) #8
  store i32 0, ptr %4, align 4, !tbaa !12
  call void @llvm.lifetime.start.p0(i64 1, ptr %5) #8
  store i8 0, ptr %5, align 1, !tbaa !14
  %6 = load i8, ptr @H5D_init_g, align 1, !tbaa !14, !range !16, !noundef !17
  %7 = trunc i8 %6 to i1
  br i1 %7, label %12, label %8

8:                                                ; preds = %1
  %9 = load i8, ptr @H5_libterm_g, align 1, !tbaa !14, !range !16, !noundef !17
  %10 = trunc i8 %9 to i1
  %11 = xor i1 %10, true
  br label %12

12:                                               ; preds = %8, %1
  %13 = phi i1 [ true, %1 ], [ %11, %8 ]
  %14 = xor i1 %13, true
  %15 = xor i1 %14, true
  %16 = zext i1 %15 to i32
  %17 = sext i32 %16 to i64
  %18 = call i64 @llvm.expect.i64(i64 %17, i64 1)
  %19 = icmp ne i64 %18, 0
  br i1 %19, label %20, label %59

20:                                               ; preds = %12
  %21 = load ptr, ptr %2, align 8, !tbaa !3
  %22 = getelementptr inbounds nuw %struct.H5D_chk_idx_info_t, ptr %21, i32 0, i32 2
  %23 = load ptr, ptr %22, align 8, !tbaa !26
  %24 = getelementptr inbounds nuw %struct.H5D_chunk_common_ud_t, ptr %3, i32 0, i32 0
  store ptr %23, ptr %24, align 8, !tbaa !27
  %25 = load ptr, ptr %2, align 8, !tbaa !3
  %26 = getelementptr inbounds nuw %struct.H5D_chk_idx_info_t, ptr %25, i32 0, i32 3
  %27 = load ptr, ptr %26, align 8, !tbaa !18
  %28 = getelementptr inbounds nuw %struct.H5D_chunk_common_ud_t, ptr %3, i32 0, i32 1
  store ptr %27, ptr %28, align 8, !tbaa !30
  %29 = load ptr, ptr %2, align 8, !tbaa !3
  %30 = getelementptr inbounds nuw %struct.H5D_chk_idx_info_t, ptr %29, i32 0, i32 0
  %31 = load ptr, ptr %30, align 8, !tbaa !25
  %32 = load ptr, ptr %2, align 8, !tbaa !3
  %33 = getelementptr inbounds nuw %struct.H5D_chk_idx_info_t, ptr %32, i32 0, i32 3
  %34 = load ptr, ptr %33, align 8, !tbaa !18
  %35 = getelementptr inbounds nuw %struct.H5O_storage_chunk_t, ptr %34, i32 0, i32 1
  %36 = call i32 @H5B_create(ptr noundef %31, ptr noundef @H5B_BTREE, ptr noundef %3, ptr noundef %35)
  %37 = icmp slt i32 %36, 0
  br i1 %37, label %38, label %57

38:                                               ; preds = %20
  br label %39

39:                                               ; preds = %38
  br label %40

40:                                               ; preds = %39
  br label %41

41:                                               ; preds = %40
  %42 = load i64, ptr @H5E_DATASET_g, align 8, !tbaa !10
  %43 = load i64, ptr @H5E_CANTINIT_g, align 8, !tbaa !10
  %44 = call i32 (ptr, ptr, i32, i64, i64, ptr, ...) @H5E_printf_stack(ptr noundef @.str, ptr noundef @__func__.H5D__btree_idx_create, i32 noundef 873, i64 noundef %42, i64 noundef %43, ptr noundef @.str.5)
  br label %45

45:                                               ; preds = %41
  br label %46

46:                                               ; preds = %45
  store i8 1, ptr %5, align 1, !tbaa !14
  %47 = load i8, ptr %5, align 1, !tbaa !14, !range !16, !noundef !17
  %48 = trunc i8 %47 to i1
  %49 = zext i1 %48 to i8
  store i8 %49, ptr %5, align 1, !tbaa !14
  br label %50

50:                                               ; preds = %46
  br label %51

51:                                               ; preds = %50
  br label %52

52:                                               ; preds = %51
  store i32 -1, ptr %4, align 4, !tbaa !12
  br label %58

53:                                               ; No predecessors!
  br label %54

54:                                               ; preds = %53
  br label %55

55:                                               ; preds = %54
  br label %56

56:                                               ; preds = %55
  br label %57

57:                                               ; preds = %56, %20
  br label %58

58:                                               ; preds = %57, %52
  br label %59

59:                                               ; preds = %58, %12
  %60 = load i32, ptr %4, align 4, !tbaa !12
  call void @llvm.lifetime.end.p0(i64 1, ptr %5) #8
  call void @llvm.lifetime.end.p0(i64 4, ptr %4) #8
  call void @llvm.lifetime.end.p0(i64 24, ptr %3) #8
  ret i32 %60
}