; Function Attrs: nounwind uwtable
define internal range(i32 -1, 1) i32 @H5D__btree_idx_create(ptr noundef readonly captures(none) %0) #0 {
  %2 = alloca %struct.H5D_chunk_common_ud_t, align 8
  call void @llvm.lifetime.start.p0(i64 24, ptr nonnull %2) #15
  %3 = load i8, ptr @H5D_init_g, align 1, !tbaa !3, !range !7, !noundef !8
  %4 = trunc nuw i8 %3 to i1
  %5 = load i8, ptr @H5_libterm_g, align 1, !range !7
  %6 = trunc nuw i8 %5 to i1
  %7 = xor i1 %6, true
  %8 = select i1 %4, i1 true, i1 %7
  br i1 %8, label %9, label %23, !prof !9

9:                                                ; preds = %1
  %10 = getelementptr inbounds nuw i8, ptr %0, i64 16
  %11 = load ptr, ptr %10, align 8, !tbaa !19
  store ptr %11, ptr %2, align 8, !tbaa !22
  %12 = getelementptr inbounds nuw i8, ptr %0, i64 24
  %13 = load ptr, ptr %12, align 8, !tbaa !10
  %14 = getelementptr inbounds nuw i8, ptr %2, i64 8
  store ptr %13, ptr %14, align 8, !tbaa !25
  %15 = load ptr, ptr %0, align 8, !tbaa !18
  %16 = getelementptr inbounds nuw i8, ptr %13, i64 8
  %17 = call i32 @H5B_create(ptr noundef %15, ptr noundef nonnull @H5B_BTREE, ptr noundef nonnull %2, ptr noundef nonnull %16) #15
  %18 = icmp slt i32 %17, 0
  br i1 %18, label %19, label %23

19:                                               ; preds = %9
  %20 = load i64, ptr @H5E_DATASET_g, align 8, !tbaa !20
  %21 = load i64, ptr @H5E_CANTINIT_g, align 8, !tbaa !20
  %22 = call i32 (ptr, ptr, i32, i64, i64, ptr, ...) @H5E_printf_stack(ptr noundef nonnull @.str, ptr noundef nonnull @__func__.H5D__btree_idx_create, i32 noundef 873, i64 noundef %20, i64 noundef %21, ptr noundef nonnull @.str.5) #15
  br label %23

23:                                               ; preds = %19, %9, %1
  %.0 = phi i32 [ -1, %19 ], [ 0, %9 ], [ 0, %1 ]
  call void @llvm.lifetime.end.p0(i64 24, ptr nonnull %2) #15
  ret i32 %.0
}